; Function Attrs: nounwind uwtable
define dso_local ptr @_php_stream_fopen_from_file(ptr noundef %0, ptr noundef %1) local_unnamed_addr #3 {
  %3 = tail call noalias ptr @_emalloc_192() #17
  %4 = getelementptr inbounds nuw i8, ptr %3, i64 16
  tail call void @llvm.memset.p0.i64(ptr noundef nonnull align 8 dereferenceable(192) %4, i8 0, i64 176, i1 false)
  store ptr %0, ptr %3, align 8, !tbaa !36
  %5 = getelementptr inbounds nuw i8, ptr %3, i64 12
  store i32 8, ptr %4, align 8, !tbaa !12
  store i32 32, ptr %5, align 4
  %6 = tail call i32 @fileno(ptr noundef %0) #17
  %7 = getelementptr inbounds nuw i8, ptr %3, i64 8
  store i32 %6, ptr %7, align 8, !tbaa !19
  %8 = tail call ptr @_php_stream_alloc(ptr noundef nonnull @php_stream_stdio_ops, ptr noundef nonnull %3, ptr noundef null, ptr noundef %1) #17
  %.not = icmp eq ptr %8, null
  br i1 %.not, label %51, label %9

9:                                                ; preds = %2
  %10 = getelementptr inbounds nuw i8, ptr %8, i64 8
  %11 = load ptr, ptr %10, align 8, !tbaa !20
  %12 = getelementptr inbounds nuw i8, ptr %11, i64 8
  %13 = load i32, ptr %12, align 8, !tbaa !19
  %14 = icmp sgt i32 %13, -1
  %15 = getelementptr inbounds nuw i8, ptr %11, i64 12
  %16 = load i32, ptr %15, align 4
  br i1 %14, label %17, label %detect_is_seekable.exit

17:                                               ; preds = %9
  %18 = and i32 %16, 4
  %.not.i.i = icmp eq i32 %18, 0
  br i1 %.not.i.i, label %19, label %do_fstat.exit.thread.i

19:                                               ; preds = %17
  %20 = load ptr, ptr %11, align 8, !tbaa !36
  %.not14.i.i = icmp eq ptr %20, null
  br i1 %.not14.i.i, label %do_fstat.exit.i, label %21

21:                                               ; preds = %19
  %22 = tail call i32 @fileno(ptr noundef nonnull %20) #17
  br label %do_fstat.exit.i

do_fstat.exit.i:                                  ; preds = %21, %19
  %23 = phi i32 [ %22, %21 ], [ %13, %19 ]
  %24 = getelementptr inbounds nuw i8, ptr %11, i64 48
  %25 = tail call i32 @fstat(i32 noundef %23, ptr noundef nonnull %24) #17
  %26 = icmp eq i32 %25, 0
  %27 = load i32, ptr %15, align 4
  %28 = select i1 %26, i32 4, i32 0
  %29 = and i32 %27, -5
  %30 = or disjoint i32 %29, %28
  store i32 %30, ptr %15, align 4
  br i1 %26, label %do_fstat.exit.thread.i, label %detect_is_seekable.exit

do_fstat.exit.thread.i:                           ; preds = %do_fstat.exit.i, %17
  %31 = phi i32 [ %16, %17 ], [ %30, %do_fstat.exit.i ]
  %32 = getelementptr inbounds nuw i8, ptr %11, i64 72
  %33 = load i32, ptr %32, align 8, !tbaa !37
  %34 = and i32 %33, 61440
  %35 = icmp eq i32 %34, 4096
  %.not.i = icmp eq i32 %34, 8192
  %36 = or i1 %35, %.not.i
  %37 = select i1 %36, i32 0, i32 32
  %38 = and i32 %31, -35
  %39 = select i1 %35, i32 2, i32 0
  %40 = or disjoint i32 %39, %38
  %41 = or disjoint i32 %40, %37
  store i32 %41, ptr %15, align 4
  br label %detect_is_seekable.exit

detect_is_seekable.exit:                          ; preds = %9, %do_fstat.exit.i, %do_fstat.exit.thread.i
  %42 = phi i32 [ %30, %do_fstat.exit.i ], [ %41, %do_fstat.exit.thread.i ], [ %16, %9 ]
  %43 = and i32 %42, 32
  %.not11 = icmp eq i32 %43, 0
  br i1 %.not11, label %44, label %48

44:                                               ; preds = %detect_is_seekable.exit
  %45 = getelementptr inbounds nuw i8, ptr %8, i64 116
  %46 = load i32, ptr %45, align 4, !tbaa !38
  %47 = or i32 %46, 1
  store i32 %47, ptr %45, align 4, !tbaa !38
  br label %.sink.split

48:                                               ; preds = %detect_is_seekable.exit
  %49 = tail call i64 @ftell(ptr noundef %0)
  br label %.sink.split

.sink.split:                                      ; preds = %48, %44
  %.sink = phi i64 [ -1, %44 ], [ %49, %48 ]
  %50 = getelementptr inbounds nuw i8, ptr %8, i64 152
  store i64 %.sink, ptr %50, align 8, !tbaa !39
  br label %51

51:                                               ; preds = %.sink.split, %2
  ret ptr %8
}